target datalayout = "e-m:e-p270:32:32-p271:32:32-p272:64:64-i64:64-i128:128-f80:128-n8:16:32:64-S128"
target triple = "x86_64-pc-linux-gnu"

%struct._lv_cache_entry_t = type { ptr, i32, i32, i8 }

; Function Attrs: nounwind uwtable
define void @lv_cache_entry_set_node_size(ptr noundef %0, i32 noundef %1) #0 {
  %3 = alloca ptr, align 8
  %4 = alloca i32, align 4
  store ptr %0, ptr %3, align 8, !tbaa !3
  store i32 %1, ptr %4, align 4, !tbaa !14
  br label %5

5:                                                ; preds = %2
  %6 = load ptr, ptr %3, align 8, !tbaa !3
  %7 = icmp ne ptr %6, null
  br i1 %7, label %12, label %8

8:                                                ; preds = %5
  br label %9

9:                                                ; preds = %8
  br label %10

10:                                               ; preds = %9
  br label %11

11:                                               ; preds = %10, %11
  br label %11

12:                                               ; preds = %5
  br label %13

13:                                               ; preds = %12
  %14 = load i32, ptr %4, align 4, !tbaa !14
  %15 = load ptr, ptr %3, align 8, !tbaa !3
  %16 = getelementptr inbounds nuw %struct._lv_cache_entry_t, ptr %15, i32 0, i32 2
  store i32 %14, ptr %16, align 4, !tbaa !13
  ret void
}